target datalayout = "e-m:e-p270:32:32-p271:32:32-p272:64:64-i64:64-i128:128-f80:128-n8:16:32:64-S128"
target triple = "x86_64-pc-linux-gnu"

%"class.grpc_core::InternallyRefCounted" = type { %"class.grpc_core::Orphanable", %"class.grpc_core::RefCount" }
%"class.grpc_core::Orphanable" = type { ptr }
%"class.grpc_core::RefCount" = type { %"struct.std::atomic" }
%"struct.std::atomic" = type { %"struct.std::__atomic_base" }
%"struct.std::__atomic_base" = type { i64 }
%"class.grpc_core::RefCountedPtr.203" = type { ptr }
%"class.grpc_core::Timestamp" = type { i64 }
%"struct.grpc_event_engine::experimental::EventEngine::TaskHandle" = type { [2 x i64] }
%"class.grpc_core::(anonymous namespace)::OutlierDetectionLb::EjectionTimer" = type { %"class.grpc_core::InternallyRefCounted.202", %"class.grpc_core::RefCountedPtr.203", %"class.std::optional.204", %"class.grpc_core::Timestamp", %"class.absl::lts_20240722::random_internal::NonsecureURBGBase" }
%"class.grpc_core::InternallyRefCounted.202" = type { %"class.grpc_core::Orphanable", %"class.grpc_core::RefCount" }
%"class.std::optional.204" = type { %"struct.std::_Optional_base.205" }
%"struct.std::_Optional_base.205" = type { %"struct.std::_Optional_payload.207" }
%"struct.std::_Optional_payload.207" = type { %"struct.std::_Optional_payload_base.base.209", [7 x i8] }
%"struct.std::_Optional_payload_base.base.209" = type <{ %"union.std::_Optional_payload_base<grpc_event_engine::experimental::EventEngine::TaskHandle>::_Storage", i8 }>
%"union.std::_Optional_payload_base<grpc_event_engine::experimental::EventEngine::TaskHandle>::_Storage" = type { %"struct.grpc_event_engine::experimental::EventEngine::TaskHandle" }
%"class.absl::lts_20240722::random_internal::NonsecureURBGBase" = type { %"class.absl::lts_20240722::random_internal::randen_engine" }
%"class.absl::lts_20240722::random_internal::randen_engine" = type { [264 x i8], i64, %"class.absl::lts_20240722::random_internal::Randen" }
%"class.absl::lts_20240722::random_internal::Randen" = type <{ ptr, i8, [7 x i8] }>

; Function Attrs: alwaysinline mustprogress nounwind uwtable
define linkonce_odr noundef i64 @_ZNSt13__atomic_baseIlE9fetch_subElSt12memory_order(ptr noundef nonnull align 8 dereferenceable(8) %0, i64 noundef %1, i32 noundef %2) #15 comdat align 2 {
  %4 = alloca ptr, align 8
  %5 = alloca i64, align 8
  %6 = alloca i32, align 4
  %7 = alloca i64, align 8
  %8 = alloca i64, align 8
  store ptr %0, ptr %4, align 8, !tbaa !550
  store i64 %1, ptr %5, align 8, !tbaa !44
  store i32 %2, ptr %6, align 4, !tbaa !509
  %9 = load ptr, ptr %4, align 8
  %10 = getelementptr inbounds nuw %"struct.std::__atomic_base", ptr %9, i32 0, i32 0
  %11 = load i32, ptr %6, align 4, !tbaa !509
  %12 = load i64, ptr %5, align 8, !tbaa !44
  store i64 %12, ptr %7, align 8, !tbaa !44
  switch i32 %11, label %13 [
    i32 1, label %16
    i32 2, label %16
    i32 3, label %19
    i32 4, label %22
    i32 5, label %25
  ]

13:                                               ; preds = %3
  %14 = load i64, ptr %7, align 8
  %15 = atomicrmw sub ptr %10, i64 %14 monotonic, align 8
  store i64 %15, ptr %8, align 8
  br label %28

16:                                               ; preds = %3, %3
  %17 = load i64, ptr %7, align 8
  %18 = atomicrmw sub ptr %10, i64 %17 acquire, align 8
  store i64 %18, ptr %8, align 8
  br label %28

19:                                               ; preds = %3
  %20 = load i64, ptr %7, align 8
  %21 = atomicrmw sub ptr %10, i64 %20 release, align 8
  store i64 %21, ptr %8, align 8
  br label %28

22:                                               ; preds = %3
  %23 = load i64, ptr %7, align 8
  %24 = atomicrmw sub ptr %10, i64 %23 acq_rel, align 8
  store i64 %24, ptr %8, align 8
  br label %28

25:                                               ; preds = %3
  %26 = load i64, ptr %7, align 8
  %27 = atomicrmw sub ptr %10, i64 %26 seq_cst, align 8
  store i64 %27, ptr %8, align 8
  br label %28

28:                                               ; preds = %25, %22, %19, %16, %13
  %29 = load i64, ptr %8, align 8, !tbaa !44
  ret i64 %29
}

; Function Attrs: mustprogress nounwind uwtable
define linkonce_odr void @_ZNK9grpc_core11UnrefDeleteclINS_19LoadBalancingPolicyEEEvPT_(ptr noundef nonnull align 1 dereferenceable(1) %0, ptr noundef %1) #6 comdat align 2 {
  %3 = alloca ptr, align 8
  %4 = alloca ptr, align 8
  store ptr %0, ptr %3, align 8, !tbaa !548
  store ptr %1, ptr %4, align 8, !tbaa !430
  %5 = load ptr, ptr %4, align 8, !tbaa !430
  %6 = icmp eq ptr %5, null
  br i1 %6, label %11, label %7

7:                                                ; preds = %2
  %8 = load ptr, ptr %5, align 8, !tbaa !151
  %9 = getelementptr inbounds ptr, ptr %8, i64 2
  %10 = load ptr, ptr %9, align 8
  call void %10(ptr noundef nonnull align 8 dereferenceable(56) %5) #3
  br label %11

11:                                               ; preds = %7, %2
  ret void
}

; Function Attrs: mustprogress nounwind uwtable
define linkonce_odr noundef zeroext i1 @_ZN9grpc_core8RefCount5UnrefEv(ptr noundef nonnull align 8 dereferenceable(8) %0) #6 comdat align 2 {
  %2 = alloca ptr, align 8
  %3 = alloca i64, align 8
  store ptr %0, ptr %2, align 8, !tbaa !546
  %4 = load ptr, ptr %2, align 8
  call void @llvm.lifetime.start.p0(i64 8, ptr %3) #3
  %5 = getelementptr inbounds nuw %"class.grpc_core::RefCount", ptr %4, i32 0, i32 0
  %6 = call noundef i64 @_ZNSt13__atomic_baseIlE9fetch_subElSt12memory_order(ptr noundef nonnull align 8 dereferenceable(8) %5, i64 noundef 1, i32 noundef 4) #3
  store i64 %6, ptr %3, align 8, !tbaa !44
  %7 = load i64, ptr %3, align 8, !tbaa !44
  %8 = icmp eq i64 %7, 1
  call void @llvm.lifetime.end.p0(i64 8, ptr %3) #3
  ret i1 %8
}

; Function Attrs: noinline noreturn nounwind uwtable
define linkonce_odr hidden void @__clang_call_terminate(ptr noundef %0) #10 comdat {
  %2 = call ptr @__cxa_begin_catch(ptr %0) #3
  call void @_ZSt9terminatev() #30
  unreachable
}

; Function Attrs: mustprogress uwtable
define linkonce_odr void @_ZN9grpc_core20InternallyRefCountedINS_19LoadBalancingPolicyENS_11UnrefDeleteEE5UnrefEv(ptr noundef nonnull align 8 dereferenceable(16) %0) #4 comdat align 2 {
  %2 = alloca ptr, align 8
  store ptr %0, ptr %2, align 8, !tbaa !552
  %3 = load ptr, ptr %2, align 8
  %4 = getelementptr inbounds nuw %"class.grpc_core::InternallyRefCounted", ptr %3, i32 0, i32 1
  %5 = call noundef zeroext i1 @_ZN9grpc_core8RefCount5UnrefEv(ptr noundef nonnull align 8 dereferenceable(8) %4)
  %6 = zext i1 %5 to i64
  %7 = call i64 @llvm.expect.i64(i64 %6, i64 0)
  %8 = icmp ne i64 %7, 0
  br i1 %8, label %9, label %10

9:                                                ; preds = %1
  call void @_ZNK9grpc_core11UnrefDeleteclINS_19LoadBalancingPolicyEEEvPT_(ptr noundef nonnull align 1 dereferenceable(1) %3, ptr noundef %3)
  br label %10

10:                                               ; preds = %9, %1
  ret void
}

; Function Attrs: mustprogress nounwind uwtable
define linkonce_odr void @_ZN9grpc_core10OrphanableD2Ev(ptr noundef nonnull align 8 dereferenceable(8) %0) unnamed_addr #6 comdat align 2 {
  %2 = alloca ptr, align 8
  store ptr %0, ptr %2, align 8, !tbaa !707
  ret void
}

; Function Attrs: mustprogress nounwind uwtable
define internal void @_ZN9grpc_core13RefCountedPtrINS_12_GLOBAL__N_118OutlierDetectionLbEED2Ev(ptr noundef nonnull align 8 dereferenceable(8) %0) unnamed_addr #6 align 2 personality ptr @__gxx_personality_v0 {
  %2 = alloca ptr, align 8
  store ptr %0, ptr %2, align 8, !tbaa !534
  %3 = load ptr, ptr %2, align 8
  %4 = getelementptr inbounds nuw %"class.grpc_core::RefCountedPtr.203", ptr %3, i32 0, i32 0
  %5 = load ptr, ptr %4, align 8, !tbaa !536
  %6 = icmp ne ptr %5, null
  br i1 %6, label %7, label %11

7:                                                ; preds = %1
  %8 = getelementptr inbounds nuw %"class.grpc_core::RefCountedPtr.203", ptr %3, i32 0, i32 0
  %9 = load ptr, ptr %8, align 8, !tbaa !536
  invoke void @_ZN9grpc_core20InternallyRefCountedINS_19LoadBalancingPolicyENS_11UnrefDeleteEE5UnrefEv(ptr noundef nonnull align 8 dereferenceable(16) %9)
          to label %10 unwind label %12

10:                                               ; preds = %7
  br label %11

11:                                               ; preds = %10, %1
  ret void

12:                                               ; preds = %7
  %13 = landingpad { ptr, i32 }
          catch ptr null
  %14 = extractvalue { ptr, i32 } %13, 0
  call void @__clang_call_terminate(ptr %14) #30
  unreachable
}

; Function Attrs: inlinehint mustprogress nounwind uwtable
define internal void @_ZN9grpc_core12_GLOBAL__N_118OutlierDetectionLb13EjectionTimerD2Ev(ptr noundef nonnull align 8 dereferenceable(344) %0) unnamed_addr #12 align 2 {
  %2 = alloca ptr, align 8
  store ptr %0, ptr %2, align 8, !tbaa !426
  %3 = load ptr, ptr %2, align 8
  %4 = getelementptr inbounds nuw %"class.grpc_core::(anonymous namespace)::OutlierDetectionLb::EjectionTimer", ptr %3, i32 0, i32 1
  call void @_ZN9grpc_core13RefCountedPtrINS_12_GLOBAL__N_118OutlierDetectionLbEED2Ev(ptr noundef nonnull align 8 dereferenceable(8) %4) #3
  call void @_ZN9grpc_core10OrphanableD2Ev(ptr noundef nonnull align 8 dereferenceable(16) %3) #3
  ret void
}

; Function Attrs: inlinehint mustprogress nounwind uwtable
define internal void @_ZN9grpc_core12_GLOBAL__N_118OutlierDetectionLb13EjectionTimerD0Ev(ptr noundef nonnull align 8 dereferenceable(344) %0) unnamed_addr #12 align 2 {
  %2 = alloca ptr, align 8
  store ptr %0, ptr %2, align 8, !tbaa !426
  %3 = load ptr, ptr %2, align 8
  call void @_ZN9grpc_core12_GLOBAL__N_118OutlierDetectionLb13EjectionTimerD2Ev(ptr noundef nonnull align 8 dereferenceable(344) %3) #3
  call void @_ZdlPvm(ptr noundef %3, i64 noundef 344) #29
  ret void
}